target datalayout = "e-m:e-p270:32:32-p271:32:32-p272:64:64-i64:64-i128:128-f80:128-n8:16:32:64-S128"
target triple = "x86_64-pc-linux-gnu"

%"class.cxx20::unexpected" = type { %"class.WasmEdge::ErrCode" }
%"class.WasmEdge::ErrCode" = type { %"union.WasmEdge::ErrCode::InnerT" }
%"union.WasmEdge::ErrCode::InnerT" = type { i32 }
%"struct.WasmEdge::ErrInfo::InfoForbidIndex" = type { i8, i32, i32 }
%"struct.spdlog::source_loc" = type { ptr, i32, ptr }
%"class.fmt::v8::basic_format_string" = type { %"class.fmt::v8::basic_string_view" }
%"class.fmt::v8::basic_string_view" = type { ptr, i64 }
%"class.fmt::v8::basic_format_string.343" = type { %"class.fmt::v8::basic_string_view" }

@.str.5 = private unnamed_addr constant [3 x i8] c"{}\00", align 1

; Function Attrs: mustprogress uwtable
define linkonce_odr hidden void @_ZN6spdlog6logger3logIJRKN8WasmEdge7ErrInfo15InfoForbidIndexEEEEvNS_10source_locENS_5level10level_enumEN3fmt2v819basic_format_stringIcJDpNSB_13type_identityIT_E4typeEEEEDpOSE_(ptr noundef nonnull align 8 dereferenceable(208) %0, ptr noundef byval(%"struct.spdlog::source_loc") align 8 %1, i32 noundef %2, ptr %3, i64 %4, ptr noundef nonnull align 4 dereferenceable(12) %5) #1 comdat align 2 {
  %7 = alloca %"class.fmt::v8::basic_string_view", align 8
  %8 = alloca ptr, align 8
  %9 = alloca %"class.fmt::v8::basic_format_string.343", align 8
  %10 = alloca ptr, align 8
  %11 = alloca i32, align 4
  %12 = alloca ptr, align 8
  %13 = alloca %"struct.spdlog::source_loc", align 8
  %14 = alloca %"class.fmt::v8::basic_string_view", align 8
  %15 = getelementptr inbounds { ptr, i64 }, ptr %9, i32 0, i32 0
  store ptr %3, ptr %15, align 8
  %16 = getelementptr inbounds { ptr, i64 }, ptr %9, i32 0, i32 1
  store i64 %4, ptr %16, align 8
  store ptr %0, ptr %10, align 8
  store i32 %2, ptr %11, align 4
  store ptr %5, ptr %12, align 8
  %17 = load ptr, ptr %10, align 8
  call void @llvm.memcpy.p0.p0.i64(ptr align 8 %13, ptr align 8 %1, i64 24, i1 false)
  %18 = load i32, ptr %11, align 4
  store ptr %9, ptr %8, align 8
  %19 = load ptr, ptr %8, align 8
  call void @llvm.memcpy.p0.p0.i64(ptr align 8 %7, ptr align 8 %19, i64 16, i1 false)
  %20 = load { ptr, i64 }, ptr %7, align 8
  %21 = getelementptr inbounds { ptr, i64 }, ptr %14, i32 0, i32 0
  %22 = extractvalue { ptr, i64 } %20, 0
  store ptr %22, ptr %21, align 8
  %23 = getelementptr inbounds { ptr, i64 }, ptr %14, i32 0, i32 1
  %24 = extractvalue { ptr, i64 } %20, 1
  store i64 %24, ptr %23, align 8
  %25 = load ptr, ptr %12, align 8
  %26 = getelementptr inbounds { ptr, i64 }, ptr %14, i32 0, i32 0
  %27 = load ptr, ptr %26, align 8
  %28 = getelementptr inbounds { ptr, i64 }, ptr %14, i32 0, i32 1
  %29 = load i64, ptr %28, align 8
  call void @_ZN6spdlog6logger4log_IJRKN8WasmEdge7ErrInfo15InfoForbidIndexEEEEvNS_10source_locENS_5level10level_enumEN3fmt2v817basic_string_viewIcEEDpOT_(ptr noundef nonnull align 8 dereferenceable(208) %17, ptr noundef byval(%"struct.spdlog::source_loc") align 8 %13, i32 noundef %18, ptr %27, i64 %29, ptr noundef nonnull align 4 dereferenceable(12) %25)
  ret void
}

; Function Attrs: mustprogress uwtable
define linkonce_odr hidden void @_ZN6spdlog6logger3logIJRKN8WasmEdge7ErrCodeEEEEvNS_10source_locENS_5level10level_enumEN3fmt2v819basic_format_stringIcJDpNSA_13type_identityIT_E4typeEEEEDpOSD_(ptr noundef nonnull align 8 dereferenceable(208) %0, ptr noundef byval(%"struct.spdlog::source_loc") align 8 %1, i32 noundef %2, ptr %3, i64 %4, ptr noundef nonnull align 4 dereferenceable(4) %5) #1 comdat align 2 {
  %7 = alloca %"class.fmt::v8::basic_string_view", align 8
  %8 = alloca ptr, align 8
  %9 = alloca %"class.fmt::v8::basic_format_string", align 8
  %10 = alloca ptr, align 8
  %11 = alloca i32, align 4
  %12 = alloca ptr, align 8
  %13 = alloca %"struct.spdlog::source_loc", align 8
  %14 = alloca %"class.fmt::v8::basic_string_view", align 8
  %15 = getelementptr inbounds { ptr, i64 }, ptr %9, i32 0, i32 0
  store ptr %3, ptr %15, align 8
  %16 = getelementptr inbounds { ptr, i64 }, ptr %9, i32 0, i32 1
  store i64 %4, ptr %16, align 8
  store ptr %0, ptr %10, align 8
  store i32 %2, ptr %11, align 4
  store ptr %5, ptr %12, align 8
  %17 = load ptr, ptr %10, align 8
  call void @llvm.memcpy.p0.p0.i64(ptr align 8 %13, ptr align 8 %1, i64 24, i1 false)
  %18 = load i32, ptr %11, align 4
  store ptr %9, ptr %8, align 8
  %19 = load ptr, ptr %8, align 8
  call void @llvm.memcpy.p0.p0.i64(ptr align 8 %7, ptr align 8 %19, i64 16, i1 false)
  %20 = load { ptr, i64 }, ptr %7, align 8
  %21 = getelementptr inbounds { ptr, i64 }, ptr %14, i32 0, i32 0
  %22 = extractvalue { ptr, i64 } %20, 0
  store ptr %22, ptr %21, align 8
  %23 = getelementptr inbounds { ptr, i64 }, ptr %14, i32 0, i32 1
  %24 = extractvalue { ptr, i64 } %20, 1
  store i64 %24, ptr %23, align 8
  %25 = load ptr, ptr %12, align 8
  %26 = getelementptr inbounds { ptr, i64 }, ptr %14, i32 0, i32 0
  %27 = load ptr, ptr %26, align 8
  %28 = getelementptr inbounds { ptr, i64 }, ptr %14, i32 0, i32 1
  %29 = load i64, ptr %28, align 8
  call void @_ZN6spdlog6logger4log_IJRKN8WasmEdge7ErrCodeEEEEvNS_10source_locENS_5level10level_enumEN3fmt2v817basic_string_viewIcEEDpOT_(ptr noundef nonnull align 8 dereferenceable(208) %17, ptr noundef byval(%"struct.spdlog::source_loc") align 8 %13, i32 noundef %18, ptr %27, i64 %29, ptr noundef nonnull align 4 dereferenceable(4) %25)
  ret void
}

; Function Attrs: mustprogress nounwind uwtable
define linkonce_odr hidden noundef i64 @_ZNSt11char_traitsIcE6lengthEPKc(ptr noundef %0) #0 comdat align 2 {
  %2 = alloca ptr, align 8
  store ptr %0, ptr %2, align 8
  %3 = load ptr, ptr %2, align 8
  %4 = call i64 @strlen(ptr noundef %3) #15
  ret i64 %4
}

; Function Attrs: noreturn nounwind uwtable
define linkonce_odr hidden void @__clang_call_terminate(ptr noundef %0) #2 comdat {
  %2 = call ptr @__cxa_begin_catch(ptr %0) #15
  call void @_ZSt9terminatev() #16
  unreachable
}

; Function Attrs: mustprogress nounwind uwtable
define linkonce_odr hidden void @_ZN8WasmEdge7ErrCode6InnerTC2Ej(ptr noundef nonnull align 4 dereferenceable(4) %0, i32 noundef %1) unnamed_addr #0 comdat align 2 {
  %3 = alloca ptr, align 8
  %4 = alloca i32, align 4
  store ptr %0, ptr %3, align 8
  store i32 %1, ptr %4, align 4
  %5 = load ptr, ptr %3, align 8
  %6 = load i32, ptr %4, align 4
  store i32 %6, ptr %5, align 4
  ret void
}

; Function Attrs: mustprogress uwtable
define linkonce_odr hidden void @_ZN6spdlog6logger3logIN8WasmEdge7ErrInfo15InfoForbidIndexETnNSt9enable_ifIXntsr35is_convertible_to_any_format_stringIRKT_EE5valueEiE4typeELi0EEEvNS_10source_locENS_5level10level_enumES8_(ptr noundef nonnull align 8 dereferenceable(208) %0, ptr noundef byval(%"struct.spdlog::source_loc") align 8 %1, i32 noundef %2, ptr noundef nonnull align 4 dereferenceable(12) %3) #1 comdat align 2 {
  %5 = alloca ptr, align 8
  %6 = alloca ptr, align 8
  %7 = alloca ptr, align 8
  %8 = alloca ptr, align 8
  %9 = alloca ptr, align 8
  %10 = alloca ptr, align 8
  %11 = alloca i32, align 4
  %12 = alloca ptr, align 8
  %13 = alloca %"struct.spdlog::source_loc", align 8
  %14 = alloca %"class.fmt::v8::basic_format_string.343", align 8
  store ptr %0, ptr %10, align 8
  store i32 %2, ptr %11, align 4
  store ptr %3, ptr %12, align 8
  %15 = load ptr, ptr %10, align 8
  call void @llvm.memcpy.p0.p0.i64(ptr align 8 %13, ptr align 8 %1, i64 24, i1 false)
  %16 = load i32, ptr %11, align 4
  store ptr %14, ptr %8, align 8
  store ptr @.str.5, ptr %9, align 8
  %17 = load ptr, ptr %8, align 8
  %18 = load ptr, ptr %9, align 8
  store ptr %17, ptr %6, align 8
  store ptr %18, ptr %7, align 8
  %19 = load ptr, ptr %6, align 8
  %20 = load ptr, ptr %7, align 8
  store ptr %20, ptr %19, align 8
  %21 = getelementptr inbounds %"class.fmt::v8::basic_string_view", ptr %19, i32 0, i32 1
  %22 = load ptr, ptr %7, align 8
  %23 = call noundef i64 @_ZNSt11char_traitsIcE6lengthEPKc(ptr noundef %22)
  store i64 %23, ptr %21, align 8
  %24 = load ptr, ptr %9, align 8
  store ptr %24, ptr %5, align 8
  %25 = load ptr, ptr %12, align 8
  %26 = getelementptr inbounds { ptr, i64 }, ptr %14, i32 0, i32 0
  %27 = load ptr, ptr %26, align 8
  %28 = getelementptr inbounds { ptr, i64 }, ptr %14, i32 0, i32 1
  %29 = load i64, ptr %28, align 8
  call void @_ZN6spdlog6logger3logIJRKN8WasmEdge7ErrInfo15InfoForbidIndexEEEEvNS_10source_locENS_5level10level_enumEN3fmt2v819basic_format_stringIcJDpNSB_13type_identityIT_E4typeEEEEDpOSE_(ptr noundef nonnull align 8 dereferenceable(208) %15, ptr noundef byval(%"struct.spdlog::source_loc") align 8 %13, i32 noundef %16, ptr %27, i64 %29, ptr noundef nonnull align 4 dereferenceable(12) %25)
  ret void
}

; Function Attrs: mustprogress uwtable
define linkonce_odr hidden void @_ZN6spdlog6logger3logIN8WasmEdge7ErrCodeETnNSt9enable_ifIXntsr35is_convertible_to_any_format_stringIRKT_EE5valueEiE4typeELi0EEEvNS_10source_locENS_5level10level_enumES7_(ptr noundef nonnull align 8 dereferenceable(208) %0, ptr noundef byval(%"struct.spdlog::source_loc") align 8 %1, i32 noundef %2, ptr noundef nonnull align 4 dereferenceable(4) %3) #1 comdat align 2 {
  %5 = alloca ptr, align 8
  %6 = alloca ptr, align 8
  %7 = alloca ptr, align 8
  %8 = alloca ptr, align 8
  %9 = alloca ptr, align 8
  %10 = alloca ptr, align 8
  %11 = alloca i32, align 4
  %12 = alloca ptr, align 8
  %13 = alloca %"struct.spdlog::source_loc", align 8
  %14 = alloca %"class.fmt::v8::basic_format_string", align 8
  store ptr %0, ptr %10, align 8
  store i32 %2, ptr %11, align 4
  store ptr %3, ptr %12, align 8
  %15 = load ptr, ptr %10, align 8
  call void @llvm.memcpy.p0.p0.i64(ptr align 8 %13, ptr align 8 %1, i64 24, i1 false)
  %16 = load i32, ptr %11, align 4
  store ptr %14, ptr %8, align 8
  store ptr @.str.5, ptr %9, align 8
  %17 = load ptr, ptr %8, align 8
  %18 = load ptr, ptr %9, align 8
  store ptr %17, ptr %6, align 8
  store ptr %18, ptr %7, align 8
  %19 = load ptr, ptr %6, align 8
  %20 = load ptr, ptr %7, align 8
  store ptr %20, ptr %19, align 8
  %21 = getelementptr inbounds %"class.fmt::v8::basic_string_view", ptr %19, i32 0, i32 1
  %22 = load ptr, ptr %7, align 8
  %23 = call noundef i64 @_ZNSt11char_traitsIcE6lengthEPKc(ptr noundef %22)
  store i64 %23, ptr %21, align 8
  %24 = load ptr, ptr %9, align 8
  store ptr %24, ptr %5, align 8
  %25 = load ptr, ptr %12, align 8
  %26 = getelementptr inbounds { ptr, i64 }, ptr %14, i32 0, i32 0
  %27 = load ptr, ptr %26, align 8
  %28 = getelementptr inbounds { ptr, i64 }, ptr %14, i32 0, i32 1
  %29 = load i64, ptr %28, align 8
  call void @_ZN6spdlog6logger3logIJRKN8WasmEdge7ErrCodeEEEEvNS_10source_locENS_5level10level_enumEN3fmt2v819basic_format_stringIcJDpNSA_13type_identityIT_E4typeEEEEDpOSD_(ptr noundef nonnull align 8 dereferenceable(208) %15, ptr noundef byval(%"struct.spdlog::source_loc") align 8 %13, i32 noundef %16, ptr %27, i64 %29, ptr noundef nonnull align 4 dereferenceable(4) %25)
  ret void
}

; Function Attrs: mustprogress nounwind uwtable
define linkonce_odr hidden void @_ZN6spdlog10source_locC2Ev(ptr noundef nonnull align 8 dereferenceable(24) %0) unnamed_addr #0 comdat align 2 {
  %2 = alloca ptr, align 8
  store ptr %0, ptr %2, align 8
  %3 = load ptr, ptr %2, align 8
  %4 = getelementptr inbounds %"struct.spdlog::source_loc", ptr %3, i32 0, i32 0
  store ptr null, ptr %4, align 8
  %5 = getelementptr inbounds %"struct.spdlog::source_loc", ptr %3, i32 0, i32 1
  store i32 0, ptr %5, align 8
  %6 = getelementptr inbounds %"struct.spdlog::source_loc", ptr %3, i32 0, i32 2
  store ptr null, ptr %6, align 8
  ret void
}

; Function Attrs: mustprogress nounwind uwtable
define linkonce_odr hidden void @_ZN8WasmEdge7ErrCodeC2ERKS0_(ptr noundef nonnull align 4 dereferenceable(4) %0, ptr noundef nonnull align 4 dereferenceable(4) %1) unnamed_addr #0 comdat align 2 personality ptr @__gxx_personality_v0 {
  %3 = alloca ptr, align 8
  %4 = alloca ptr, align 8
  store ptr %0, ptr %3, align 8
  store ptr %1, ptr %4, align 8
  %5 = load ptr, ptr %3, align 8
  %6 = getelementptr inbounds %"class.WasmEdge::ErrCode", ptr %5, i32 0, i32 0
  %7 = load ptr, ptr %4, align 8
  %8 = getelementptr inbounds %"class.WasmEdge::ErrCode", ptr %7, i32 0, i32 0
  %9 = load i32, ptr %8, align 4
  invoke void @_ZN8WasmEdge7ErrCode6InnerTC2Ej(ptr noundef nonnull align 4 dereferenceable(4) %6, i32 noundef %9)
          to label %10 unwind label %11

10:                                               ; preds = %2
  ret void

11:                                               ; preds = %2
  %12 = landingpad { ptr, i32 }
          catch ptr null
  %13 = extractvalue { ptr, i32 } %12, 0
  call void @__clang_call_terminate(ptr %13) #16
  unreachable
}

; Function Attrs: mustprogress uwtable
define linkonce_odr hidden void @_ZN6spdlog6logger3logIN8WasmEdge7ErrInfo15InfoForbidIndexEEEvNS_5level10level_enumERKT_(ptr noundef nonnull align 8 dereferenceable(208) %0, i32 noundef %1, ptr noundef nonnull align 4 dereferenceable(12) %2) #1 comdat align 2 {
  %4 = alloca ptr, align 8
  %5 = alloca i32, align 4
  %6 = alloca ptr, align 8
  %7 = alloca %"struct.spdlog::source_loc", align 8
  store ptr %0, ptr %4, align 8
  store i32 %1, ptr %5, align 4
  store ptr %2, ptr %6, align 8
  %8 = load ptr, ptr %4, align 8
  call void @llvm.memset.p0.i64(ptr align 8 %7, i8 0, i64 24, i1 false)
  call void @_ZN6spdlog10source_locC2Ev(ptr noundef nonnull align 8 dereferenceable(24) %7) #15
  %9 = load i32, ptr %5, align 4
  %10 = load ptr, ptr %6, align 8
  call void @_ZN6spdlog6logger3logIN8WasmEdge7ErrInfo15InfoForbidIndexETnNSt9enable_ifIXntsr35is_convertible_to_any_format_stringIRKT_EE5valueEiE4typeELi0EEEvNS_10source_locENS_5level10level_enumES8_(ptr noundef nonnull align 8 dereferenceable(208) %8, ptr noundef byval(%"struct.spdlog::source_loc") align 8 %7, i32 noundef %9, ptr noundef nonnull align 4 dereferenceable(12) %10)
  ret void
}

; Function Attrs: mustprogress uwtable
define linkonce_odr hidden void @_ZN6spdlog6logger3logIN8WasmEdge7ErrCodeEEEvNS_5level10level_enumERKT_(ptr noundef nonnull align 8 dereferenceable(208) %0, i32 noundef %1, ptr noundef nonnull align 4 dereferenceable(4) %2) #1 comdat align 2 {
  %4 = alloca ptr, align 8
  %5 = alloca i32, align 4
  %6 = alloca ptr, align 8
  %7 = alloca %"struct.spdlog::source_loc", align 8
  store ptr %0, ptr %4, align 8
  store i32 %1, ptr %5, align 4
  store ptr %2, ptr %6, align 8
  %8 = load ptr, ptr %4, align 8
  call void @llvm.memset.p0.i64(ptr align 8 %7, i8 0, i64 24, i1 false)
  call void @_ZN6spdlog10source_locC2Ev(ptr noundef nonnull align 8 dereferenceable(24) %7) #15
  %9 = load i32, ptr %5, align 4
  %10 = load ptr, ptr %6, align 8
  call void @_ZN6spdlog6logger3logIN8WasmEdge7ErrCodeETnNSt9enable_ifIXntsr35is_convertible_to_any_format_stringIRKT_EE5valueEiE4typeELi0EEEvNS_10source_locENS_5level10level_enumES7_(ptr noundef nonnull align 8 dereferenceable(208) %8, ptr noundef byval(%"struct.spdlog::source_loc") align 8 %7, i32 noundef %9, ptr noundef nonnull align 4 dereferenceable(4) %10)
  ret void
}

; Function Attrs: mustprogress nounwind uwtable
define linkonce_odr hidden void @_ZN5cxx2010unexpectedIN8WasmEdge7ErrCodeEEC2IRKS2_TnPNSt9enable_ifIXaaaa18is_constructible_vIS2_T_EntL_ZSt9is_same_vIS2_St10in_place_tEEntL_ZS9_IS2_S3_EEEvE4typeELPv0ELb1EEEOS8_(ptr noundef nonnull align 4 dereferenceable(4) %0, ptr noundef nonnull align 4 dereferenceable(4) %1) unnamed_addr #0 comdat align 2 {
  %3 = alloca ptr, align 8
  %4 = alloca ptr, align 8
  store ptr %0, ptr %3, align 8
  store ptr %1, ptr %4, align 8
  %5 = load ptr, ptr %3, align 8
  %6 = getelementptr inbounds %"class.cxx20::unexpected", ptr %5, i32 0, i32 0
  %7 = load ptr, ptr %4, align 8
  call void @_ZN8WasmEdge7ErrCodeC2ERKS0_(ptr noundef nonnull align 4 dereferenceable(4) %6, ptr noundef nonnull align 4 dereferenceable(4) %7) #15
  ret void
}

; Function Attrs: mustprogress uwtable
define linkonce_odr hidden void @_ZN6spdlog6logger5errorIN8WasmEdge7ErrInfo15InfoForbidIndexEEEvRKT_(ptr noundef nonnull align 8 dereferenceable(208) %0, ptr noundef nonnull align 4 dereferenceable(12) %1) #1 comdat align 2 {
  %3 = alloca ptr, align 8
  %4 = alloca ptr, align 8
  store ptr %0, ptr %3, align 8
  store ptr %1, ptr %4, align 8
  %5 = load ptr, ptr %3, align 8
  %6 = load ptr, ptr %4, align 8
  call void @_ZN6spdlog6logger3logIN8WasmEdge7ErrInfo15InfoForbidIndexEEEvNS_5level10level_enumERKT_(ptr noundef nonnull align 8 dereferenceable(208) %5, i32 noundef 4, ptr noundef nonnull align 4 dereferenceable(12) %6)
  ret void
}

; Function Attrs: mustprogress uwtable
define linkonce_odr hidden void @_ZN6spdlog6logger5errorIN8WasmEdge7ErrCodeEEEvRKT_(ptr noundef nonnull align 8 dereferenceable(208) %0, ptr noundef nonnull align 4 dereferenceable(4) %1) #1 comdat align 2 {
  %3 = alloca ptr, align 8
  %4 = alloca ptr, align 8
  store ptr %0, ptr %3, align 8
  store ptr %1, ptr %4, align 8
  %5 = load ptr, ptr %3, align 8
  %6 = load ptr, ptr %4, align 8
  call void @_ZN6spdlog6logger3logIN8WasmEdge7ErrCodeEEEvNS_5level10level_enumERKT_(ptr noundef nonnull align 8 dereferenceable(208) %5, i32 noundef 4, ptr noundef nonnull align 4 dereferenceable(4) %6)
  ret void
}

; Function Attrs: mustprogress nounwind uwtable
define linkonce_odr hidden void @_ZN8WasmEdge8UnexpectERKNS_7ErrCodeE(ptr dead_on_unwind noalias writable sret(%"class.cxx20::unexpected") align 4 %0, ptr noundef nonnull align 4 dereferenceable(4) %1) #0 comdat {
  %3 = alloca ptr, align 8
  %4 = alloca ptr, align 8
  store ptr %0, ptr %3, align 8
  store ptr %1, ptr %4, align 8
  %5 = load ptr, ptr %4, align 8
  call void @_ZN5cxx2010unexpectedIN8WasmEdge7ErrCodeEEC2IRKS2_TnPNSt9enable_ifIXaaaa18is_constructible_vIS2_T_EntL_ZSt9is_same_vIS2_St10in_place_tEEntL_ZS9_IS2_S3_EEEvE4typeELPv0ELb1EEEOS8_(ptr noundef nonnull align 4 dereferenceable(4) %0, ptr noundef nonnull align 4 dereferenceable(4) %5) #15
  ret void
}

; Function Attrs: mustprogress uwtable
define linkonce_odr hidden void @_ZN6spdlog5errorIN8WasmEdge7ErrInfo15InfoForbidIndexEEEvRKT_(ptr noundef nonnull align 4 dereferenceable(12) %0) #1 comdat {
  %2 = alloca ptr, align 8
  store ptr %0, ptr %2, align 8
  %3 = call noundef ptr @_ZN6spdlog18default_logger_rawEv()
  %4 = load ptr, ptr %2, align 8
  call void @_ZN6spdlog6logger5errorIN8WasmEdge7ErrInfo15InfoForbidIndexEEEvRKT_(ptr noundef nonnull align 8 dereferenceable(208) %3, ptr noundef nonnull align 4 dereferenceable(12) %4)
  ret void
}

; Function Attrs: mustprogress nounwind uwtable
define linkonce_odr hidden void @_ZN8WasmEdge7ErrInfo15InfoForbidIndexC2ENS0_13IndexCategoryEjj(ptr noundef nonnull align 4 dereferenceable(12) %0, i8 noundef zeroext %1, i32 noundef %2, i32 noundef %3) unnamed_addr #0 comdat align 2 {
  %5 = alloca ptr, align 8
  %6 = alloca i8, align 1
  %7 = alloca i32, align 4
  %8 = alloca i32, align 4
  store ptr %0, ptr %5, align 8
  store i8 %1, ptr %6, align 1
  store i32 %2, ptr %7, align 4
  store i32 %3, ptr %8, align 4
  %9 = load ptr, ptr %5, align 8
  %10 = getelementptr inbounds %"struct.WasmEdge::ErrInfo::InfoForbidIndex", ptr %9, i32 0, i32 0
  %11 = load i8, ptr %6, align 1
  store i8 %11, ptr %10, align 4
  %12 = getelementptr inbounds %"struct.WasmEdge::ErrInfo::InfoForbidIndex", ptr %9, i32 0, i32 1
  %13 = load i32, ptr %7, align 4
  store i32 %13, ptr %12, align 4
  %14 = getelementptr inbounds %"struct.WasmEdge::ErrInfo::InfoForbidIndex", ptr %9, i32 0, i32 2
  %15 = load i32, ptr %8, align 4
  store i32 %15, ptr %14, align 4
  ret void
}

; Function Attrs: mustprogress uwtable
define linkonce_odr hidden void @_ZN6spdlog5errorIN8WasmEdge7ErrCodeEEEvRKT_(ptr noundef nonnull align 4 dereferenceable(4) %0) #1 comdat {
  %2 = alloca ptr, align 8
  store ptr %0, ptr %2, align 8
  %3 = call noundef ptr @_ZN6spdlog18default_logger_rawEv()
  %4 = load ptr, ptr %2, align 8
  call void @_ZN6spdlog6logger5errorIN8WasmEdge7ErrCodeEEEvRKT_(ptr noundef nonnull align 8 dereferenceable(208) %3, ptr noundef nonnull align 4 dereferenceable(4) %4)
  ret void
}

; Function Attrs: mustprogress uwtable
define internal void @_ZN8WasmEdge9Validator12_GLOBAL__N_113logOutOfRangeENS_7ErrCodeENS_7ErrInfo13IndexCategoryEjj(ptr dead_on_unwind noalias writable sret(%"class.cxx20::unexpected") align 4 %0, ptr noundef %1, i8 noundef zeroext %2, i32 noundef %3, i32 noundef %4) #1 {
  %6 = alloca ptr, align 8
  %7 = alloca ptr, align 8
  %8 = alloca i8, align 1
  %9 = alloca i32, align 4
  %10 = alloca i32, align 4
  %11 = alloca %"struct.WasmEdge::ErrInfo::InfoForbidIndex", align 4
  store ptr %0, ptr %6, align 8
  store ptr %1, ptr %7, align 8
  store i8 %2, ptr %8, align 1
  store i32 %3, ptr %9, align 4
  store i32 %4, ptr %10, align 4
  call void @_ZN6spdlog5errorIN8WasmEdge7ErrCodeEEEvRKT_(ptr noundef nonnull align 4 dereferenceable(4) %1)
  %12 = load i8, ptr %8, align 1
  %13 = load i32, ptr %9, align 4
  %14 = load i32, ptr %10, align 4
  call void @_ZN8WasmEdge7ErrInfo15InfoForbidIndexC2ENS0_13IndexCategoryEjj(ptr noundef nonnull align 4 dereferenceable(12) %11, i8 noundef zeroext %12, i32 noundef %13, i32 noundef %14) #15
  call void @_ZN6spdlog5errorIN8WasmEdge7ErrInfo15InfoForbidIndexEEEvRKT_(ptr noundef nonnull align 4 dereferenceable(12) %11)
  call void @_ZN8WasmEdge8UnexpectERKNS_7ErrCodeE(ptr dead_on_unwind writable sret(%"class.cxx20::unexpected") align 4 %0, ptr noundef nonnull align 4 dereferenceable(4) %1)
  ret void
}