; Function Attrs: mustprogress uwtable
define internal fastcc void @_ZN8WasmEdge9Validator12_GLOBAL__N_113logOutOfRangeENS_7ErrCodeENS_7ErrInfo13IndexCategoryEjj(ptr dead_on_unwind noalias nonnull writable writeonly align 4 captures(none) initializes((0, 4)) %0, ptr noundef nonnull %1, i8 noundef zeroext range(i8 0, 14) %2, i32 noundef %3, i32 noundef %4) unnamed_addr #1 personality ptr @__gxx_personality_v0 {
  %6 = alloca %"struct.spdlog::source_loc", align 8
  %7 = alloca %"struct.spdlog::source_loc", align 8
  %8 = alloca %"struct.WasmEdge::ErrInfo::InfoForbidIndex", align 4
  %9 = tail call noundef ptr @_ZN6spdlog18default_logger_rawEv()
  call void @llvm.lifetime.start.p0(i64 24, ptr nonnull %7)
  call void @llvm.memset.p0.i64(ptr noundef nonnull align 8 dereferenceable(24) %7, i8 0, i64 24, i1 false)
  tail call void @_ZN6spdlog6logger4log_IJRKN8WasmEdge7ErrCodeEEEEvNS_10source_locENS_5level10level_enumEN3fmt2v817basic_string_viewIcEEDpOT_(ptr noundef nonnull align 8 dereferenceable(208) %9, ptr noundef nonnull byval(%"struct.spdlog::source_loc") align 8 %7, i32 noundef 4, ptr nonnull @.str.5, i64 2, ptr noundef nonnull align 4 dereferenceable(4) %1)
  call void @llvm.lifetime.end.p0(i64 24, ptr nonnull %7)
  store i8 %2, ptr %8, align 4
  %10 = getelementptr inbounds nuw i8, ptr %8, i64 4
  store i32 %3, ptr %10, align 4
  %11 = getelementptr inbounds nuw i8, ptr %8, i64 8
  store i32 %4, ptr %11, align 4
  %12 = tail call noundef ptr @_ZN6spdlog18default_logger_rawEv()
  call void @llvm.lifetime.start.p0(i64 24, ptr nonnull %6)
  call void @llvm.memset.p0.i64(ptr noundef nonnull align 8 dereferenceable(24) %6, i8 0, i64 24, i1 false)
  call void @_ZN6spdlog6logger4log_IJRKN8WasmEdge7ErrInfo15InfoForbidIndexEEEEvNS_10source_locENS_5level10level_enumEN3fmt2v817basic_string_viewIcEEDpOT_(ptr noundef nonnull align 8 dereferenceable(208) %12, ptr noundef nonnull byval(%"struct.spdlog::source_loc") align 8 %6, i32 noundef 4, ptr nonnull @.str.5, i64 2, ptr noundef nonnull align 4 dereferenceable(12) %8)
  call void @llvm.lifetime.end.p0(i64 24, ptr nonnull %6)
  call void @llvm.experimental.noalias.scope.decl(metadata !308)
  %13 = load i32, ptr %1, align 4, !noalias !308
  store i32 %13, ptr %0, align 4, !alias.scope !308
  ret void
}